; Function Attrs: mustprogress nofree norecurse nosync nounwind willreturn memory(write, argmem: readwrite, inaccessiblemem: none) uwtable
define dso_local void @block_append(ptr noundef captures(none) %0, ptr %1, ptr %2) local_unnamed_addr #9 {
  %.not = icmp eq ptr %1, null
  br i1 %.not, label %11, label %4

4:                                                ; preds = %3
  %5 = getelementptr inbounds nuw i8, ptr %0, i64 8
  %6 = load ptr, ptr %5, align 8, !tbaa !36
  %.not7 = icmp eq ptr %6, null
  br i1 %.not7, label %9, label %7

7:                                                ; preds = %4
  store ptr %1, ptr %6, align 8, !tbaa !22
  %8 = getelementptr inbounds nuw i8, ptr %1, i64 8
  store ptr %6, ptr %8, align 8, !tbaa !34
  br label %10

9:                                                ; preds = %4
  store ptr %1, ptr %0, align 8, !tbaa !37
  br label %10

10:                                               ; preds = %9, %7
  store ptr %2, ptr %5, align 8, !tbaa !36
  br label %11

11:                                               ; preds = %10, %3
  ret void
}